
exec.elf:     file format elf32-littlearm


Disassembly of section .isr_vector:

08000000 <isr_vector>:
 8000000:	20020000 	andcs	r0, r2, r0
 8000004:	080001a1 	stmdaeq	r0, {r0, r5, r7, r8}
 8000008:	08000199 	stmdaeq	r0, {r0, r3, r4, r7, r8}
 800000c:	08000199 	stmdaeq	r0, {r0, r3, r4, r7, r8}
 8000010:	08000199 	stmdaeq	r0, {r0, r3, r4, r7, r8}
 8000014:	08000199 	stmdaeq	r0, {r0, r3, r4, r7, r8}
 8000018:	08000199 	stmdaeq	r0, {r0, r3, r4, r7, r8}
	...
 800002c:	08000199 	stmdaeq	r0, {r0, r3, r4, r7, r8}
 8000030:	08000199 	stmdaeq	r0, {r0, r3, r4, r7, r8}
 8000034:	00000000 	andeq	r0, r0, r0
 8000038:	08000199 	stmdaeq	r0, {r0, r3, r4, r7, r8}
 800003c:	08000199 	stmdaeq	r0, {r0, r3, r4, r7, r8}
 8000040:	08000199 	stmdaeq	r0, {r0, r3, r4, r7, r8}
 8000044:	08000199 	stmdaeq	r0, {r0, r3, r4, r7, r8}
 8000048:	08000199 	stmdaeq	r0, {r0, r3, r4, r7, r8}
 800004c:	08000199 	stmdaeq	r0, {r0, r3, r4, r7, r8}
 8000050:	08000199 	stmdaeq	r0, {r0, r3, r4, r7, r8}
 8000054:	08000199 	stmdaeq	r0, {r0, r3, r4, r7, r8}
 8000058:	08000199 	stmdaeq	r0, {r0, r3, r4, r7, r8}
 800005c:	08000199 	stmdaeq	r0, {r0, r3, r4, r7, r8}
 8000060:	08000199 	stmdaeq	r0, {r0, r3, r4, r7, r8}
 8000064:	08000199 	stmdaeq	r0, {r0, r3, r4, r7, r8}
 8000068:	08000199 	stmdaeq	r0, {r0, r3, r4, r7, r8}
 800006c:	08000199 	stmdaeq	r0, {r0, r3, r4, r7, r8}
 8000070:	08000199 	stmdaeq	r0, {r0, r3, r4, r7, r8}
 8000074:	08000199 	stmdaeq	r0, {r0, r3, r4, r7, r8}
 8000078:	08000199 	stmdaeq	r0, {r0, r3, r4, r7, r8}
 800007c:	08000199 	stmdaeq	r0, {r0, r3, r4, r7, r8}
 8000080:	08000199 	stmdaeq	r0, {r0, r3, r4, r7, r8}
 8000084:	08000199 	stmdaeq	r0, {r0, r3, r4, r7, r8}
 8000088:	08000199 	stmdaeq	r0, {r0, r3, r4, r7, r8}
	...
 800009c:	08000199 	stmdaeq	r0, {r0, r3, r4, r7, r8}
 80000a0:	08000199 	stmdaeq	r0, {r0, r3, r4, r7, r8}
 80000a4:	08000199 	stmdaeq	r0, {r0, r3, r4, r7, r8}
 80000a8:	08000199 	stmdaeq	r0, {r0, r3, r4, r7, r8}
 80000ac:	08000199 	stmdaeq	r0, {r0, r3, r4, r7, r8}
 80000b0:	08000199 	stmdaeq	r0, {r0, r3, r4, r7, r8}
 80000b4:	08000199 	stmdaeq	r0, {r0, r3, r4, r7, r8}
 80000b8:	08000199 	stmdaeq	r0, {r0, r3, r4, r7, r8}
 80000bc:	08000199 	stmdaeq	r0, {r0, r3, r4, r7, r8}
 80000c0:	08000199 	stmdaeq	r0, {r0, r3, r4, r7, r8}
 80000c4:	08000199 	stmdaeq	r0, {r0, r3, r4, r7, r8}
 80000c8:	08000199 	stmdaeq	r0, {r0, r3, r4, r7, r8}
 80000cc:	08000199 	stmdaeq	r0, {r0, r3, r4, r7, r8}
 80000d0:	08000199 	stmdaeq	r0, {r0, r3, r4, r7, r8}
 80000d4:	08000199 	stmdaeq	r0, {r0, r3, r4, r7, r8}
 80000d8:	08000199 	stmdaeq	r0, {r0, r3, r4, r7, r8}
 80000dc:	00000000 	andeq	r0, r0, r0
 80000e0:	08000199 	stmdaeq	r0, {r0, r3, r4, r7, r8}
 80000e4:	08000199 	stmdaeq	r0, {r0, r3, r4, r7, r8}
 80000e8:	08000199 	stmdaeq	r0, {r0, r3, r4, r7, r8}
	...
 80000fc:	08000199 	stmdaeq	r0, {r0, r3, r4, r7, r8}
 8000100:	00000000 	andeq	r0, r0, r0
 8000104:	08000199 	stmdaeq	r0, {r0, r3, r4, r7, r8}
 8000108:	08000199 	stmdaeq	r0, {r0, r3, r4, r7, r8}
 800010c:	08000199 	stmdaeq	r0, {r0, r3, r4, r7, r8}
	...
 8000120:	08000199 	stmdaeq	r0, {r0, r3, r4, r7, r8}
 8000124:	08000199 	stmdaeq	r0, {r0, r3, r4, r7, r8}
 8000128:	08000199 	stmdaeq	r0, {r0, r3, r4, r7, r8}
 800012c:	08000199 	stmdaeq	r0, {r0, r3, r4, r7, r8}
 8000130:	08000199 	stmdaeq	r0, {r0, r3, r4, r7, r8}
	...
 800014c:	08000199 	stmdaeq	r0, {r0, r3, r4, r7, r8}
 8000150:	08000199 	stmdaeq	r0, {r0, r3, r4, r7, r8}
 8000154:	08000199 	stmdaeq	r0, {r0, r3, r4, r7, r8}
 8000158:	08000199 	stmdaeq	r0, {r0, r3, r4, r7, r8}
 800015c:	08000199 	stmdaeq	r0, {r0, r3, r4, r7, r8}
 8000160:	08000199 	stmdaeq	r0, {r0, r3, r4, r7, r8}
 8000164:	08000199 	stmdaeq	r0, {r0, r3, r4, r7, r8}
	...
 8000184:	08000199 	stmdaeq	r0, {r0, r3, r4, r7, r8}
	...
 8000190:	08000199 	stmdaeq	r0, {r0, r3, r4, r7, r8}
 8000194:	08000199 	stmdaeq	r0, {r0, r3, r4, r7, r8}

Disassembly of section .text:

08000198 <defaultHandler>:
 8000198:	b480      	push	{r7}
 800019a:	af00      	add	r7, sp, #0
 800019c:	bf00      	nop
 800019e:	e7fd      	b.n	800019c <defaultHandler+0x4>

080001a0 <resetHandler>:
 80001a0:	b580      	push	{r7, lr}
 80001a2:	af00      	add	r7, sp, #0
 80001a4:	f000 f848 	bl	8000238 <systemInit>
 80001a8:	f000 f806 	bl	80001b8 <initializeBSS>
 80001ac:	f000 f820 	bl	80001f0 <copyDataSectionToRAM>
 80001b0:	f000 f84a 	bl	8000248 <main>
 80001b4:	bf00      	nop
 80001b6:	bd80      	pop	{r7, pc}

080001b8 <initializeBSS>:
 80001b8:	b480      	push	{r7}
 80001ba:	b083      	sub	sp, #12
 80001bc:	af00      	add	r7, sp, #0
 80001be:	4b0a      	ldr	r3, [pc, #40]	@ (80001e8 <initializeBSS+0x30>)
 80001c0:	607b      	str	r3, [r7, #4]
 80001c2:	e005      	b.n	80001d0 <initializeBSS+0x18>
 80001c4:	687b      	ldr	r3, [r7, #4]
 80001c6:	2200      	movs	r2, #0
 80001c8:	601a      	str	r2, [r3, #0]
 80001ca:	687b      	ldr	r3, [r7, #4]
 80001cc:	3304      	adds	r3, #4
 80001ce:	607b      	str	r3, [r7, #4]
 80001d0:	687b      	ldr	r3, [r7, #4]
 80001d2:	4a06      	ldr	r2, [pc, #24]	@ (80001ec <initializeBSS+0x34>)
 80001d4:	4293      	cmp	r3, r2
 80001d6:	d1f5      	bne.n	80001c4 <initializeBSS+0xc>
 80001d8:	bf00      	nop
 80001da:	bf00      	nop
 80001dc:	370c      	adds	r7, #12
 80001de:	46bd      	mov	sp, r7
 80001e0:	f85d 7b04 	ldr.w	r7, [sp], #4
 80001e4:	4770      	bx	lr
 80001e6:	bf00      	nop
 80001e8:	20000004 	andcs	r0, r0, r4
 80001ec:	20000010 	andcs	r0, r0, r0, lsl r0

080001f0 <copyDataSectionToRAM>:
 80001f0:	b480      	push	{r7}
 80001f2:	b083      	sub	sp, #12
 80001f4:	af00      	add	r7, sp, #0
 80001f6:	4b0d      	ldr	r3, [pc, #52]	@ (800022c <copyDataSectionToRAM+0x3c>)
 80001f8:	607b      	str	r3, [r7, #4]
 80001fa:	4b0d      	ldr	r3, [pc, #52]	@ (8000230 <copyDataSectionToRAM+0x40>)
 80001fc:	603b      	str	r3, [r7, #0]
 80001fe:	e009      	b.n	8000214 <copyDataSectionToRAM+0x24>
 8000200:	687b      	ldr	r3, [r7, #4]
 8000202:	681a      	ldr	r2, [r3, #0]
 8000204:	683b      	ldr	r3, [r7, #0]
 8000206:	601a      	str	r2, [r3, #0]
 8000208:	687b      	ldr	r3, [r7, #4]
 800020a:	3304      	adds	r3, #4
 800020c:	607b      	str	r3, [r7, #4]
 800020e:	683b      	ldr	r3, [r7, #0]
 8000210:	3304      	adds	r3, #4
 8000212:	603b      	str	r3, [r7, #0]
 8000214:	683b      	ldr	r3, [r7, #0]
 8000216:	4a07      	ldr	r2, [pc, #28]	@ (8000234 <copyDataSectionToRAM+0x44>)
 8000218:	4293      	cmp	r3, r2
 800021a:	d1f1      	bne.n	8000200 <copyDataSectionToRAM+0x10>
 800021c:	bf00      	nop
 800021e:	bf00      	nop
 8000220:	370c      	adds	r7, #12
 8000222:	46bd      	mov	sp, r7
 8000224:	f85d 7b04 	ldr.w	r7, [sp], #4
 8000228:	4770      	bx	lr
 800022a:	bf00      	nop
 800022c:	0800025c 	stmdaeq	r0, {r2, r3, r4, r6, r9}
 8000230:	20000000 	andcs	r0, r0, r0
 8000234:	20000004 	andcs	r0, r0, r4

08000238 <systemInit>:
 8000238:	b480      	push	{r7}
 800023a:	af00      	add	r7, sp, #0
 800023c:	bf00      	nop
 800023e:	46bd      	mov	sp, r7
 8000240:	f85d 7b04 	ldr.w	r7, [sp], #4
 8000244:	4770      	bx	lr
	...

08000248 <main>:
 8000248:	b480      	push	{r7}
 800024a:	af00      	add	r7, sp, #0
 800024c:	4b02      	ldr	r3, [pc, #8]	@ (8000258 <main+0x10>)
 800024e:	2205      	movs	r2, #5
 8000250:	601a      	str	r2, [r3, #0]
 8000252:	bf00      	nop
 8000254:	e7fd      	b.n	8000252 <main+0xa>
 8000256:	bf00      	nop
 8000258:	20000000 	andcs	r0, r0, r0
